target datalayout = "e-m:e-p270:32:32-p271:32:32-p272:64:64-i64:64-i128:128-f80:128-n8:16:32:64-S128"
target triple = "x86_64-pc-linux-gnu"

%struct.SUNProfiler_ = type { i32, ptr, ptr, ptr, double }
%struct._sunTimerStruct = type { ptr, ptr, double, double, double, i64 }

; Function Attrs: nounwind uwtable
define internal void @sunTimerStructFree(ptr noundef %0) #0 {
  %2 = alloca ptr, align 8
  %3 = alloca ptr, align 8
  store ptr %0, ptr %2, align 8, !tbaa !35
  call void @llvm.lifetime.start.p0(i64 8, ptr %3) #8
  %4 = load ptr, ptr %2, align 8, !tbaa !35
  store ptr %4, ptr %3, align 8, !tbaa !22
  %5 = load ptr, ptr %3, align 8, !tbaa !22
  %6 = icmp ne ptr %5, null
  br i1 %6, label %7, label %27

7:                                                ; preds = %1
  %8 = load ptr, ptr %3, align 8, !tbaa !22
  %9 = getelementptr inbounds nuw %struct._sunTimerStruct, ptr %8, i32 0, i32 0
  %10 = load ptr, ptr %9, align 8, !tbaa !23
  %11 = icmp ne ptr %10, null
  br i1 %11, label %12, label %16

12:                                               ; preds = %7
  %13 = load ptr, ptr %3, align 8, !tbaa !22
  %14 = getelementptr inbounds nuw %struct._sunTimerStruct, ptr %13, i32 0, i32 0
  %15 = load ptr, ptr %14, align 8, !tbaa !23
  call void @free(ptr noundef %15) #8
  br label %16

16:                                               ; preds = %12, %7
  %17 = load ptr, ptr %3, align 8, !tbaa !22
  %18 = getelementptr inbounds nuw %struct._sunTimerStruct, ptr %17, i32 0, i32 1
  %19 = load ptr, ptr %18, align 8, !tbaa !27
  %20 = icmp ne ptr %19, null
  br i1 %20, label %21, label %25

21:                                               ; preds = %16
  %22 = load ptr, ptr %3, align 8, !tbaa !22
  %23 = getelementptr inbounds nuw %struct._sunTimerStruct, ptr %22, i32 0, i32 1
  %24 = load ptr, ptr %23, align 8, !tbaa !27
  call void @free(ptr noundef %24) #8
  br label %25

25:                                               ; preds = %21, %16
  %26 = load ptr, ptr %3, align 8, !tbaa !22
  call void @free(ptr noundef %26) #8
  br label %27

27:                                               ; preds = %25, %1
  call void @llvm.lifetime.end.p0(i64 8, ptr %3) #8
  ret void
}

; Function Attrs: nounwind uwtable
define i32 @SUNProfiler_Free(ptr noundef %0) #0 {
  %2 = alloca i32, align 4
  %3 = alloca ptr, align 8
  store ptr %0, ptr %3, align 8, !tbaa !10
  %4 = load ptr, ptr %3, align 8, !tbaa !10
  %5 = icmp ne ptr %4, null
  br i1 %5, label %6, label %10

6:                                                ; preds = %1
  %7 = load ptr, ptr %3, align 8, !tbaa !10
  %8 = load ptr, ptr %7, align 8, !tbaa !12
  %9 = icmp ne ptr %8, null
  br i1 %9, label %11, label %10

10:                                               ; preds = %6, %1
  store i32 0, ptr %2, align 4
  br label %32

11:                                               ; preds = %6
  %12 = load ptr, ptr %3, align 8, !tbaa !10
  %13 = load ptr, ptr %12, align 8, !tbaa !12
  %14 = icmp ne ptr %13, null
  br i1 %14, label %15, label %30

15:                                               ; preds = %11
  %16 = load ptr, ptr %3, align 8, !tbaa !10
  %17 = load ptr, ptr %16, align 8, !tbaa !12
  %18 = getelementptr inbounds nuw %struct.SUNProfiler_, ptr %17, i32 0, i32 2
  %19 = call i32 @SUNHashMap_Destroy(ptr noundef %18, ptr noundef @sunTimerStructFree)
  %20 = load ptr, ptr %3, align 8, !tbaa !10
  %21 = load ptr, ptr %20, align 8, !tbaa !12
  %22 = getelementptr inbounds nuw %struct.SUNProfiler_, ptr %21, i32 0, i32 3
  %23 = load ptr, ptr %22, align 8, !tbaa !14
  call void @sunTimerStructFree(ptr noundef %23)
  %24 = load ptr, ptr %3, align 8, !tbaa !10
  %25 = load ptr, ptr %24, align 8, !tbaa !12
  %26 = getelementptr inbounds nuw %struct.SUNProfiler_, ptr %25, i32 0, i32 1
  %27 = load ptr, ptr %26, align 8, !tbaa !20
  call void @free(ptr noundef %27) #8
  %28 = load ptr, ptr %3, align 8, !tbaa !10
  %29 = load ptr, ptr %28, align 8, !tbaa !12
  call void @free(ptr noundef %29) #8
  br label %30

30:                                               ; preds = %15, %11
  %31 = load ptr, ptr %3, align 8, !tbaa !10
  store ptr null, ptr %31, align 8, !tbaa !12
  store i32 0, ptr %2, align 4
  br label %32

32:                                               ; preds = %30, %10
  %33 = load i32, ptr %2, align 4
  ret i32 %33
}