; Function Attrs: nounwind uwtable
define noundef i32 @SUNProfiler_Free(ptr noundef captures(address_is_null) %0) local_unnamed_addr #0 {
  %.not = icmp eq ptr %0, null
  br i1 %.not, label %22, label %2

2:                                                ; preds = %1
  %3 = load ptr, ptr %0, align 8, !tbaa !3
  %.not9 = icmp eq ptr %3, null
  br i1 %.not9, label %22, label %4

4:                                                ; preds = %2
  %5 = getelementptr inbounds nuw i8, ptr %3, i64 16
  %6 = tail call i32 @SUNHashMap_Destroy(ptr noundef nonnull %5, ptr noundef nonnull @sunTimerStructFree) #18
  %7 = load ptr, ptr %0, align 8, !tbaa !3
  %8 = getelementptr inbounds nuw i8, ptr %7, i64 24
  %9 = load ptr, ptr %8, align 8, !tbaa !14
  %.not.i = icmp eq ptr %9, null
  br i1 %.not.i, label %sunTimerStructFree.exit, label %10

10:                                               ; preds = %4
  %11 = load ptr, ptr %9, align 8, !tbaa !8
  %.not9.i = icmp eq ptr %11, null
  br i1 %.not9.i, label %13, label %12

12:                                               ; preds = %10
  tail call void @free(ptr noundef nonnull %11) #18
  br label %13

13:                                               ; preds = %12, %10
  %14 = getelementptr inbounds nuw i8, ptr %9, i64 8
  %15 = load ptr, ptr %14, align 8, !tbaa !13
  %.not10.i = icmp eq ptr %15, null
  br i1 %.not10.i, label %17, label %16

16:                                               ; preds = %13
  tail call void @free(ptr noundef nonnull %15) #18
  br label %17

17:                                               ; preds = %16, %13
  tail call void @free(ptr noundef nonnull %9) #18
  %.pre = load ptr, ptr %0, align 8, !tbaa !3
  br label %sunTimerStructFree.exit

sunTimerStructFree.exit:                          ; preds = %4, %17
  %18 = phi ptr [ %7, %4 ], [ %.pre, %17 ]
  %19 = getelementptr inbounds nuw i8, ptr %18, i64 8
  %20 = load ptr, ptr %19, align 8, !tbaa !21
  tail call void @free(ptr noundef %20) #18
  %21 = load ptr, ptr %0, align 8, !tbaa !3
  tail call void @free(ptr noundef %21) #18
  store ptr null, ptr %0, align 8, !tbaa !3
  br label %22

22:                                               ; preds = %1, %2, %sunTimerStructFree.exit
  ret i32 0
}